target datalayout = "e-m:e-p270:32:32-p271:32:32-p272:64:64-i64:64-i128:128-f80:128-n8:16:32:64-S128"
target triple = "x86_64-pc-linux-gnu"

%struct.luaL_Buffer = type { ptr, i64, i64, ptr, %union.anon }
%union.anon = type { double, [1016 x i8] }

@.str.8 = private unnamed_addr constant [8 x i8] c"_LOADED\00", align 1
@.str.16 = private unnamed_addr constant [10 x i8] c"searchers\00", align 1
@.str.40 = private unnamed_addr constant [36 x i8] c"'package.searchers' must be a table\00", align 1
@.str.41 = private unnamed_addr constant [3 x i8] c"\0A\09\00", align 1
@.str.42 = private unnamed_addr constant [25 x i8] c"module '%s' not found:%s\00", align 1

; Function Attrs: nounwind uwtable
define internal void @findloader(ptr noundef %0, ptr noundef %1) #0 {
  %3 = alloca ptr, align 8
  %4 = alloca ptr, align 8
  %5 = alloca i32, align 4
  %6 = alloca %struct.luaL_Buffer, align 8
  store ptr %0, ptr %3, align 8, !tbaa !4
  store ptr %1, ptr %4, align 8, !tbaa !12
  call void @llvm.lifetime.start.p0(i64 4, ptr %5) #6
  call void @llvm.lifetime.start.p0(i64 1056, ptr %6) #6
  %7 = load ptr, ptr %3, align 8, !tbaa !4
  %8 = call i32 @lua_getfield(ptr noundef %7, i32 noundef -1001001, ptr noundef @.str.16)
  %9 = icmp ne i32 %8, 5
  %10 = zext i1 %9 to i32
  %11 = icmp ne i32 %10, 0
  %12 = zext i1 %11 to i32
  %13 = sext i32 %12 to i64
  %14 = call i64 @llvm.expect.i64(i64 %13, i64 0)
  %15 = icmp ne i64 %14, 0
  br i1 %15, label %16, label %19

16:                                               ; preds = %2
  %17 = load ptr, ptr %3, align 8, !tbaa !4
  %18 = call i32 (ptr, ptr, ...) @luaL_error(ptr noundef %17, ptr noundef @.str.40)
  br label %19

19:                                               ; preds = %16, %2
  %20 = load ptr, ptr %3, align 8, !tbaa !4
  call void @luaL_buffinit(ptr noundef %20, ptr noundef %6)
  call void @luaL_addstring(ptr noundef %6, ptr noundef @.str.41)
  store i32 1, ptr %5, align 4, !tbaa !9
  br label %21

21:                                               ; preds = %62, %19
  %22 = load ptr, ptr %3, align 8, !tbaa !4
  %23 = load i32, ptr %5, align 4, !tbaa !9
  %24 = sext i32 %23 to i64
  %25 = call i32 @lua_rawgeti(ptr noundef %22, i32 noundef 3, i64 noundef %24)
  %26 = icmp eq i32 %25, 0
  %27 = zext i1 %26 to i32
  %28 = icmp ne i32 %27, 0
  %29 = zext i1 %28 to i32
  %30 = sext i32 %29 to i64
  %31 = call i64 @llvm.expect.i64(i64 %30, i64 0)
  %32 = icmp ne i64 %31, 0
  br i1 %32, label %33, label %43

33:                                               ; preds = %21
  %34 = load ptr, ptr %3, align 8, !tbaa !4
  call void @lua_settop(ptr noundef %34, i32 noundef -2)
  %35 = getelementptr inbounds nuw %struct.luaL_Buffer, ptr %6, i32 0, i32 2
  %36 = load i64, ptr %35, align 8, !tbaa !16
  %37 = sub i64 %36, 2
  store i64 %37, ptr %35, align 8, !tbaa !16
  call void @luaL_pushresult(ptr noundef %6)
  %38 = load ptr, ptr %3, align 8, !tbaa !4
  %39 = load ptr, ptr %4, align 8, !tbaa !12
  %40 = load ptr, ptr %3, align 8, !tbaa !4
  %41 = call ptr @lua_tolstring(ptr noundef %40, i32 noundef -1, ptr noundef null)
  %42 = call i32 (ptr, ptr, ...) @luaL_error(ptr noundef %38, ptr noundef @.str.42, ptr noundef %39, ptr noundef %41)
  br label %43

43:                                               ; preds = %33, %21
  %44 = load ptr, ptr %3, align 8, !tbaa !4
  %45 = load ptr, ptr %4, align 8, !tbaa !12
  %46 = call ptr @lua_pushstring(ptr noundef %44, ptr noundef %45)
  %47 = load ptr, ptr %3, align 8, !tbaa !4
  call void @lua_callk(ptr noundef %47, i32 noundef 1, i32 noundef 2, i64 noundef 0, ptr noundef null)
  %48 = load ptr, ptr %3, align 8, !tbaa !4
  %49 = call i32 @lua_type(ptr noundef %48, i32 noundef -2)
  %50 = icmp eq i32 %49, 6
  br i1 %50, label %51, label %52

51:                                               ; preds = %43
  call void @llvm.lifetime.end.p0(i64 1056, ptr %6) #6
  call void @llvm.lifetime.end.p0(i64 4, ptr %5) #6
  ret void

52:                                               ; preds = %43
  %53 = load ptr, ptr %3, align 8, !tbaa !4
  %54 = call i32 @lua_isstring(ptr noundef %53, i32 noundef -2)
  %55 = icmp ne i32 %54, 0
  br i1 %55, label %56, label %58

56:                                               ; preds = %52
  %57 = load ptr, ptr %3, align 8, !tbaa !4
  call void @lua_settop(ptr noundef %57, i32 noundef -2)
  call void @luaL_addvalue(ptr noundef %6)
  call void @luaL_addstring(ptr noundef %6, ptr noundef @.str.41)
  br label %60

58:                                               ; preds = %52
  %59 = load ptr, ptr %3, align 8, !tbaa !4
  call void @lua_settop(ptr noundef %59, i32 noundef -3)
  br label %60

60:                                               ; preds = %58, %56
  br label %61

61:                                               ; preds = %60
  br label %62

62:                                               ; preds = %61
  %63 = load i32, ptr %5, align 4, !tbaa !9
  %64 = add nsw i32 %63, 1
  store i32 %64, ptr %5, align 4, !tbaa !9
  br label %21
}

; Function Attrs: nounwind uwtable
define internal i32 @ll_require(ptr noundef %0) #0 {
  %2 = alloca i32, align 4
  %3 = alloca ptr, align 8
  %4 = alloca ptr, align 8
  %5 = alloca i32, align 4
  store ptr %0, ptr %3, align 8, !tbaa !4
  call void @llvm.lifetime.start.p0(i64 8, ptr %4) #6
  %6 = load ptr, ptr %3, align 8, !tbaa !4
  %7 = call ptr @luaL_checklstring(ptr noundef %6, i32 noundef 1, ptr noundef null)
  store ptr %7, ptr %4, align 8, !tbaa !12
  %8 = load ptr, ptr %3, align 8, !tbaa !4
  call void @lua_settop(ptr noundef %8, i32 noundef 1)
  %9 = load ptr, ptr %3, align 8, !tbaa !4
  %10 = call i32 @lua_getfield(ptr noundef %9, i32 noundef -1001000, ptr noundef @.str.8)
  %11 = load ptr, ptr %3, align 8, !tbaa !4
  %12 = load ptr, ptr %4, align 8, !tbaa !12
  %13 = call i32 @lua_getfield(ptr noundef %11, i32 noundef 2, ptr noundef %12)
  %14 = load ptr, ptr %3, align 8, !tbaa !4
  %15 = call i32 @lua_toboolean(ptr noundef %14, i32 noundef -1)
  %16 = icmp ne i32 %15, 0
  br i1 %16, label %17, label %18

17:                                               ; preds = %1
  store i32 1, ptr %2, align 4
  store i32 1, ptr %5, align 4
  br label %46

18:                                               ; preds = %1
  %19 = load ptr, ptr %3, align 8, !tbaa !4
  call void @lua_settop(ptr noundef %19, i32 noundef -2)
  %20 = load ptr, ptr %3, align 8, !tbaa !4
  %21 = load ptr, ptr %4, align 8, !tbaa !12
  call void @findloader(ptr noundef %20, ptr noundef %21)
  %22 = load ptr, ptr %3, align 8, !tbaa !4
  call void @lua_rotate(ptr noundef %22, i32 noundef -2, i32 noundef 1)
  %23 = load ptr, ptr %3, align 8, !tbaa !4
  call void @lua_pushvalue(ptr noundef %23, i32 noundef 1)
  %24 = load ptr, ptr %3, align 8, !tbaa !4
  call void @lua_pushvalue(ptr noundef %24, i32 noundef -3)
  %25 = load ptr, ptr %3, align 8, !tbaa !4
  call void @lua_callk(ptr noundef %25, i32 noundef 2, i32 noundef 1, i64 noundef 0, ptr noundef null)
  %26 = load ptr, ptr %3, align 8, !tbaa !4
  %27 = call i32 @lua_type(ptr noundef %26, i32 noundef -1)
  %28 = icmp eq i32 %27, 0
  br i1 %28, label %32, label %29

29:                                               ; preds = %18
  %30 = load ptr, ptr %3, align 8, !tbaa !4
  %31 = load ptr, ptr %4, align 8, !tbaa !12
  call void @lua_setfield(ptr noundef %30, i32 noundef 2, ptr noundef %31)
  br label %34

32:                                               ; preds = %18
  %33 = load ptr, ptr %3, align 8, !tbaa !4
  call void @lua_settop(ptr noundef %33, i32 noundef -2)
  br label %34

34:                                               ; preds = %32, %29
  %35 = load ptr, ptr %3, align 8, !tbaa !4
  %36 = load ptr, ptr %4, align 8, !tbaa !12
  %37 = call i32 @lua_getfield(ptr noundef %35, i32 noundef 2, ptr noundef %36)
  %38 = icmp eq i32 %37, 0
  br i1 %38, label %39, label %44

39:                                               ; preds = %34
  %40 = load ptr, ptr %3, align 8, !tbaa !4
  call void @lua_pushboolean(ptr noundef %40, i32 noundef 1)
  %41 = load ptr, ptr %3, align 8, !tbaa !4
  call void @lua_copy(ptr noundef %41, i32 noundef -1, i32 noundef -2)
  %42 = load ptr, ptr %3, align 8, !tbaa !4
  %43 = load ptr, ptr %4, align 8, !tbaa !12
  call void @lua_setfield(ptr noundef %42, i32 noundef 2, ptr noundef %43)
  br label %44

44:                                               ; preds = %39, %34
  %45 = load ptr, ptr %3, align 8, !tbaa !4
  call void @lua_rotate(ptr noundef %45, i32 noundef -2, i32 noundef 1)
  store i32 2, ptr %2, align 4
  store i32 1, ptr %5, align 4
  br label %46

46:                                               ; preds = %44, %17
  call void @llvm.lifetime.end.p0(i64 8, ptr %4) #6
  %47 = load i32, ptr %2, align 4
  ret i32 %47
}