; Function Attrs: nounwind uwtable
define internal range(i32 1, 3) i32 @ll_require(ptr noundef %0) #0 {
  %2 = alloca %struct.luaL_Buffer, align 8
  %3 = tail call ptr @luaL_checklstring(ptr noundef %0, i32 noundef 1, ptr noundef null) #7
  tail call void @lua_settop(ptr noundef %0, i32 noundef 1) #7
  %4 = tail call i32 @lua_getfield(ptr noundef %0, i32 noundef -1001000, ptr noundef nonnull @.str.8) #7
  %5 = tail call i32 @lua_getfield(ptr noundef %0, i32 noundef 2, ptr noundef %3) #7
  %6 = tail call i32 @lua_toboolean(ptr noundef %0, i32 noundef -1) #7
  %.not = icmp eq i32 %6, 0
  br i1 %.not, label %7, label %39

7:                                                ; preds = %1
  tail call void @lua_settop(ptr noundef %0, i32 noundef -2) #7
  call void @llvm.lifetime.start.p0(i64 1056, ptr nonnull %2) #7
  %8 = tail call i32 @lua_getfield(ptr noundef %0, i32 noundef -1001001, ptr noundef nonnull @.str.16) #7
  %.not.i = icmp eq i32 %8, 5
  br i1 %.not.i, label %11, label %9, !prof !16

9:                                                ; preds = %7
  %10 = tail call i32 (ptr, ptr, ...) @luaL_error(ptr noundef %0, ptr noundef nonnull @.str.40) #7
  br label %11

11:                                               ; preds = %9, %7
  call void @luaL_buffinit(ptr noundef %0, ptr noundef nonnull %2) #7
  call void @luaL_addstring(ptr noundef nonnull %2, ptr noundef nonnull @.str.41) #7
  %12 = getelementptr inbounds nuw i8, ptr %2, i64 16
  br label %13

13:                                               ; preds = %29, %11
  %indvars.iv.i = phi i64 [ %indvars.iv.next.i, %29 ], [ 1, %11 ]
  %14 = call i32 @lua_rawgeti(ptr noundef %0, i32 noundef 3, i64 noundef %indvars.iv.i) #7
  %15 = icmp eq i32 %14, 0
  br i1 %15, label %16, label %21, !prof !17

16:                                               ; preds = %13
  call void @lua_settop(ptr noundef %0, i32 noundef -2) #7
  %17 = load i64, ptr %12, align 8, !tbaa !8
  %18 = add i64 %17, -2
  store i64 %18, ptr %12, align 8, !tbaa !8
  call void @luaL_pushresult(ptr noundef nonnull %2) #7
  %19 = call ptr @lua_tolstring(ptr noundef %0, i32 noundef -1, ptr noundef null) #7
  %20 = call i32 (ptr, ptr, ...) @luaL_error(ptr noundef %0, ptr noundef nonnull @.str.42, ptr noundef %3, ptr noundef %19) #7
  br label %21

21:                                               ; preds = %16, %13
  %22 = call ptr @lua_pushstring(ptr noundef %0, ptr noundef %3) #7
  call void @lua_callk(ptr noundef %0, i32 noundef 1, i32 noundef 2, i64 noundef 0, ptr noundef null) #7
  %23 = call i32 @lua_type(ptr noundef %0, i32 noundef -2) #7
  %24 = icmp eq i32 %23, 6
  br i1 %24, label %findloader.exit, label %25

25:                                               ; preds = %21
  %26 = call i32 @lua_isstring(ptr noundef %0, i32 noundef -2) #7
  %.not16.i = icmp eq i32 %26, 0
  br i1 %.not16.i, label %28, label %27

27:                                               ; preds = %25
  call void @lua_settop(ptr noundef %0, i32 noundef -2) #7
  call void @luaL_addvalue(ptr noundef nonnull %2) #7
  call void @luaL_addstring(ptr noundef nonnull %2, ptr noundef nonnull @.str.41) #7
  br label %29

28:                                               ; preds = %25
  call void @lua_settop(ptr noundef %0, i32 noundef -3) #7
  br label %29

29:                                               ; preds = %28, %27
  %indvars.iv.next.i = add nuw nsw i64 %indvars.iv.i, 1
  br label %13

findloader.exit:                                  ; preds = %21
  call void @llvm.lifetime.end.p0(i64 1056, ptr nonnull %2) #7
  call void @lua_rotate(ptr noundef %0, i32 noundef -2, i32 noundef 1) #7
  call void @lua_pushvalue(ptr noundef %0, i32 noundef 1) #7
  call void @lua_pushvalue(ptr noundef %0, i32 noundef -3) #7
  call void @lua_callk(ptr noundef %0, i32 noundef 2, i32 noundef 1, i64 noundef 0, ptr noundef null) #7
  %30 = call i32 @lua_type(ptr noundef %0, i32 noundef -1) #7
  %31 = icmp eq i32 %30, 0
  br i1 %31, label %33, label %32

32:                                               ; preds = %findloader.exit
  call void @lua_setfield(ptr noundef %0, i32 noundef 2, ptr noundef %3) #7
  br label %34

33:                                               ; preds = %findloader.exit
  call void @lua_settop(ptr noundef %0, i32 noundef -2) #7
  br label %34

34:                                               ; preds = %33, %32
  %35 = call i32 @lua_getfield(ptr noundef %0, i32 noundef 2, ptr noundef %3) #7
  %36 = icmp eq i32 %35, 0
  br i1 %36, label %37, label %38

37:                                               ; preds = %34
  call void @lua_pushboolean(ptr noundef %0, i32 noundef 1) #7
  call void @lua_copy(ptr noundef %0, i32 noundef -1, i32 noundef -2) #7
  call void @lua_setfield(ptr noundef %0, i32 noundef 2, ptr noundef %3) #7
  br label %38

38:                                               ; preds = %37, %34
  call void @lua_rotate(ptr noundef %0, i32 noundef -2, i32 noundef 1) #7
  br label %39

39:                                               ; preds = %1, %38
  %.0 = phi i32 [ 2, %38 ], [ 1, %1 ]
  ret i32 %.0
}